target datalayout = "e-m:e-p270:32:32-p271:32:32-p272:64:64-i64:64-i128:128-f80:128-n8:16:32:64-S128"
target triple = "x86_64-pc-linux-gnu"

%"struct.Luau::BytecodeBuilder::StringRef" = type { ptr, i64 }
%"struct.Luau::BytecodeBuilder::TableShape" = type { [32 x i32], i32 }
%"struct.Luau::BytecodeBuilder::ConstantKey" = type { i32, i64, i64 }
%"class.Luau::BytecodeBuilder" = type { %"class.std::vector", i32, i32, i64, %"class.std::vector.0", %"class.std::vector.5", %"class.std::vector.10", %"class.std::vector.0", %"class.std::vector.15", %"class.std::vector.20", i8, [7 x i8], %"class.Luau::DenseHashMap", %"class.Luau::DenseHashMap.25", %"class.Luau::DenseHashMap.28", i32, %"class.std::vector.31", %"class.std::vector.36", %"class.std::vector.41", %"class.std::vector.46", %"class.std::vector.51", %"class.Luau::DenseHashMap.56", %"class.std::vector.59", %"class.std::vector.64", %"class.std::__cxx11::basic_string", ptr, %"class.std::__cxx11::basic_string", i32, %"class.std::vector.72", %"class.std::vector.77", %"class.std::__cxx11::basic_string", { i64, i64 } }
%"class.std::vector" = type { %"struct.std::_Vector_base" }
%"struct.std::_Vector_base" = type { %"struct.std::_Vector_base<Luau::BytecodeBuilder::Function, std::allocator<Luau::BytecodeBuilder::Function>>::_Vector_impl" }
%"struct.std::_Vector_base<Luau::BytecodeBuilder::Function, std::allocator<Luau::BytecodeBuilder::Function>>::_Vector_impl" = type { %"struct.std::_Vector_base<Luau::BytecodeBuilder::Function, std::allocator<Luau::BytecodeBuilder::Function>>::_Vector_impl_data" }
%"struct.std::_Vector_base<Luau::BytecodeBuilder::Function, std::allocator<Luau::BytecodeBuilder::Function>>::_Vector_impl_data" = type { ptr, ptr, ptr }
%"class.std::vector.5" = type { %"struct.std::_Vector_base.6" }
%"struct.std::_Vector_base.6" = type { %"struct.std::_Vector_base<int, std::allocator<int>>::_Vector_impl" }
%"struct.std::_Vector_base<int, std::allocator<int>>::_Vector_impl" = type { %"struct.std::_Vector_base<int, std::allocator<int>>::_Vector_impl_data" }
%"struct.std::_Vector_base<int, std::allocator<int>>::_Vector_impl_data" = type { ptr, ptr, ptr }
%"class.std::vector.10" = type { %"struct.std::_Vector_base.11" }
%"struct.std::_Vector_base.11" = type { %"struct.std::_Vector_base<Luau::BytecodeBuilder::Constant, std::allocator<Luau::BytecodeBuilder::Constant>>::_Vector_impl" }
%"struct.std::_Vector_base<Luau::BytecodeBuilder::Constant, std::allocator<Luau::BytecodeBuilder::Constant>>::_Vector_impl" = type { %"struct.std::_Vector_base<Luau::BytecodeBuilder::Constant, std::allocator<Luau::BytecodeBuilder::Constant>>::_Vector_impl_data" }
%"struct.std::_Vector_base<Luau::BytecodeBuilder::Constant, std::allocator<Luau::BytecodeBuilder::Constant>>::_Vector_impl_data" = type { ptr, ptr, ptr }
%"class.std::vector.0" = type { %"struct.std::_Vector_base.1" }
%"struct.std::_Vector_base.1" = type { %"struct.std::_Vector_base<unsigned int, std::allocator<unsigned int>>::_Vector_impl" }
%"struct.std::_Vector_base<unsigned int, std::allocator<unsigned int>>::_Vector_impl" = type { %"struct.std::_Vector_base<unsigned int, std::allocator<unsigned int>>::_Vector_impl_data" }
%"struct.std::_Vector_base<unsigned int, std::allocator<unsigned int>>::_Vector_impl_data" = type { ptr, ptr, ptr }
%"class.std::vector.15" = type { %"struct.std::_Vector_base.16" }
%"struct.std::_Vector_base.16" = type { %"struct.std::_Vector_base<Luau::BytecodeBuilder::Jump, std::allocator<Luau::BytecodeBuilder::Jump>>::_Vector_impl" }
%"struct.std::_Vector_base<Luau::BytecodeBuilder::Jump, std::allocator<Luau::BytecodeBuilder::Jump>>::_Vector_impl" = type { %"struct.std::_Vector_base<Luau::BytecodeBuilder::Jump, std::allocator<Luau::BytecodeBuilder::Jump>>::_Vector_impl_data" }
%"struct.std::_Vector_base<Luau::BytecodeBuilder::Jump, std::allocator<Luau::BytecodeBuilder::Jump>>::_Vector_impl_data" = type { ptr, ptr, ptr }
%"class.std::vector.20" = type { %"struct.std::_Vector_base.21" }
%"struct.std::_Vector_base.21" = type { %"struct.std::_Vector_base<Luau::BytecodeBuilder::TableShape, std::allocator<Luau::BytecodeBuilder::TableShape>>::_Vector_impl" }
%"struct.std::_Vector_base<Luau::BytecodeBuilder::TableShape, std::allocator<Luau::BytecodeBuilder::TableShape>>::_Vector_impl" = type { %"struct.std::_Vector_base<Luau::BytecodeBuilder::TableShape, std::allocator<Luau::BytecodeBuilder::TableShape>>::_Vector_impl_data" }
%"struct.std::_Vector_base<Luau::BytecodeBuilder::TableShape, std::allocator<Luau::BytecodeBuilder::TableShape>>::_Vector_impl_data" = type { ptr, ptr, ptr }
%"class.Luau::DenseHashMap" = type { %"class.Luau::detail::DenseHashTable" }
%"class.Luau::detail::DenseHashTable" = type <{ ptr, i64, i64, %"struct.Luau::BytecodeBuilder::ConstantKey", [8 x i8] }>
%"class.Luau::DenseHashMap.25" = type { %"class.Luau::detail::DenseHashTable.26" }
%"class.Luau::detail::DenseHashTable.26" = type <{ ptr, i64, i64, %"struct.Luau::BytecodeBuilder::TableShape", [4 x i8] }>
%"class.Luau::DenseHashMap.28" = type { %"class.Luau::detail::DenseHashTable.29" }
%"class.Luau::detail::DenseHashTable.29" = type <{ ptr, i64, i64, i32, [4 x i8] }>
%"class.std::vector.31" = type { %"struct.std::_Vector_base.32" }
%"struct.std::_Vector_base.32" = type { %"struct.std::_Vector_base<Luau::BytecodeBuilder::DebugLocal, std::allocator<Luau::BytecodeBuilder::DebugLocal>>::_Vector_impl" }
%"struct.std::_Vector_base<Luau::BytecodeBuilder::DebugLocal, std::allocator<Luau::BytecodeBuilder::DebugLocal>>::_Vector_impl" = type { %"struct.std::_Vector_base<Luau::BytecodeBuilder::DebugLocal, std::allocator<Luau::BytecodeBuilder::DebugLocal>>::_Vector_impl_data" }
%"struct.std::_Vector_base<Luau::BytecodeBuilder::DebugLocal, std::allocator<Luau::BytecodeBuilder::DebugLocal>>::_Vector_impl_data" = type { ptr, ptr, ptr }
%"class.std::vector.36" = type { %"struct.std::_Vector_base.37" }
%"struct.std::_Vector_base.37" = type { %"struct.std::_Vector_base<Luau::BytecodeBuilder::DebugUpval, std::allocator<Luau::BytecodeBuilder::DebugUpval>>::_Vector_impl" }
%"struct.std::_Vector_base<Luau::BytecodeBuilder::DebugUpval, std::allocator<Luau::BytecodeBuilder::DebugUpval>>::_Vector_impl" = type { %"struct.std::_Vector_base<Luau::BytecodeBuilder::DebugUpval, std::allocator<Luau::BytecodeBuilder::DebugUpval>>::_Vector_impl_data" }
%"struct.std::_Vector_base<Luau::BytecodeBuilder::DebugUpval, std::allocator<Luau::BytecodeBuilder::DebugUpval>>::_Vector_impl_data" = type { ptr, ptr, ptr }
%"class.std::vector.41" = type { %"struct.std::_Vector_base.42" }
%"struct.std::_Vector_base.42" = type { %"struct.std::_Vector_base<Luau::BytecodeBuilder::TypedLocal, std::allocator<Luau::BytecodeBuilder::TypedLocal>>::_Vector_impl" }
%"struct.std::_Vector_base<Luau::BytecodeBuilder::TypedLocal, std::allocator<Luau::BytecodeBuilder::TypedLocal>>::_Vector_impl" = type { %"struct.std::_Vector_base<Luau::BytecodeBuilder::TypedLocal, std::allocator<Luau::BytecodeBuilder::TypedLocal>>::_Vector_impl_data" }
%"struct.std::_Vector_base<Luau::BytecodeBuilder::TypedLocal, std::allocator<Luau::BytecodeBuilder::TypedLocal>>::_Vector_impl_data" = type { ptr, ptr, ptr }
%"class.std::vector.46" = type { %"struct.std::_Vector_base.47" }
%"struct.std::_Vector_base.47" = type { %"struct.std::_Vector_base<Luau::BytecodeBuilder::TypedUpval, std::allocator<Luau::BytecodeBuilder::TypedUpval>>::_Vector_impl" }
%"struct.std::_Vector_base<Luau::BytecodeBuilder::TypedUpval, std::allocator<Luau::BytecodeBuilder::TypedUpval>>::_Vector_impl" = type { %"struct.std::_Vector_base<Luau::BytecodeBuilder::TypedUpval, std::allocator<Luau::BytecodeBuilder::TypedUpval>>::_Vector_impl_data" }
%"struct.std::_Vector_base<Luau::BytecodeBuilder::TypedUpval, std::allocator<Luau::BytecodeBuilder::TypedUpval>>::_Vector_impl_data" = type { ptr, ptr, ptr }
%"class.std::vector.51" = type { %"struct.std::_Vector_base.52" }
%"struct.std::_Vector_base.52" = type { %"struct.std::_Vector_base<Luau::BytecodeBuilder::UserdataType, std::allocator<Luau::BytecodeBuilder::UserdataType>>::_Vector_impl" }
%"struct.std::_Vector_base<Luau::BytecodeBuilder::UserdataType, std::allocator<Luau::BytecodeBuilder::UserdataType>>::_Vector_impl" = type { %"struct.std::_Vector_base<Luau::BytecodeBuilder::UserdataType, std::allocator<Luau::BytecodeBuilder::UserdataType>>::_Vector_impl_data" }
%"struct.std::_Vector_base<Luau::BytecodeBuilder::UserdataType, std::allocator<Luau::BytecodeBuilder::UserdataType>>::_Vector_impl_data" = type { ptr, ptr, ptr }
%"class.Luau::DenseHashMap.56" = type { %"class.Luau::detail::DenseHashTable.57" }
%"class.Luau::detail::DenseHashTable.57" = type <{ ptr, i64, i64, %"struct.Luau::BytecodeBuilder::StringRef", [8 x i8] }>
%"class.std::vector.59" = type { %"struct.std::_Vector_base.60" }
%"struct.std::_Vector_base.60" = type { %"struct.std::_Vector_base<Luau::BytecodeBuilder::StringRef, std::allocator<Luau::BytecodeBuilder::StringRef>>::_Vector_impl" }
%"struct.std::_Vector_base<Luau::BytecodeBuilder::StringRef, std::allocator<Luau::BytecodeBuilder::StringRef>>::_Vector_impl" = type { %"struct.std::_Vector_base<Luau::BytecodeBuilder::StringRef, std::allocator<Luau::BytecodeBuilder::StringRef>>::_Vector_impl_data" }
%"struct.std::_Vector_base<Luau::BytecodeBuilder::StringRef, std::allocator<Luau::BytecodeBuilder::StringRef>>::_Vector_impl_data" = type { ptr, ptr, ptr }
%"class.std::vector.64" = type { %"struct.std::_Vector_base.65" }
%"struct.std::_Vector_base.65" = type { %"struct.std::_Vector_base<std::pair<unsigned int, unsigned int>, std::allocator<std::pair<unsigned int, unsigned int>>>::_Vector_impl" }
%"struct.std::_Vector_base<std::pair<unsigned int, unsigned int>, std::allocator<std::pair<unsigned int, unsigned int>>>::_Vector_impl" = type { %"struct.std::_Vector_base<std::pair<unsigned int, unsigned int>, std::allocator<std::pair<unsigned int, unsigned int>>>::_Vector_impl_data" }
%"struct.std::_Vector_base<std::pair<unsigned int, unsigned int>, std::allocator<std::pair<unsigned int, unsigned int>>>::_Vector_impl_data" = type { ptr, ptr, ptr }
%"class.std::vector.72" = type { %"struct.std::_Vector_base.73" }
%"struct.std::_Vector_base.73" = type { %"struct.std::_Vector_base<std::__cxx11::basic_string<char>, std::allocator<std::__cxx11::basic_string<char>>>::_Vector_impl" }
%"struct.std::_Vector_base<std::__cxx11::basic_string<char>, std::allocator<std::__cxx11::basic_string<char>>>::_Vector_impl" = type { %"struct.std::_Vector_base<std::__cxx11::basic_string<char>, std::allocator<std::__cxx11::basic_string<char>>>::_Vector_impl_data" }
%"struct.std::_Vector_base<std::__cxx11::basic_string<char>, std::allocator<std::__cxx11::basic_string<char>>>::_Vector_impl_data" = type { ptr, ptr, ptr }
%"class.std::vector.77" = type { %"struct.std::_Vector_base.78" }
%"struct.std::_Vector_base.78" = type { %"struct.std::_Vector_base<std::pair<int, std::__cxx11::basic_string<char>>, std::allocator<std::pair<int, std::__cxx11::basic_string<char>>>>::_Vector_impl" }
%"struct.std::_Vector_base<std::pair<int, std::__cxx11::basic_string<char>>, std::allocator<std::pair<int, std::__cxx11::basic_string<char>>>>::_Vector_impl" = type { %"struct.std::_Vector_base<std::pair<int, std::__cxx11::basic_string<char>>, std::allocator<std::pair<int, std::__cxx11::basic_string<char>>>>::_Vector_impl_data" }
%"struct.std::_Vector_base<std::pair<int, std::__cxx11::basic_string<char>>, std::allocator<std::pair<int, std::__cxx11::basic_string<char>>>>::_Vector_impl_data" = type { ptr, ptr, ptr }
%"class.std::__cxx11::basic_string" = type { %"struct.std::__cxx11::basic_string<char>::_Alloc_hider", i64, %union.anon }
%"struct.std::__cxx11::basic_string<char>::_Alloc_hider" = type { ptr }
%union.anon = type { i64, [8 x i8] }
%"struct.Luau::BytecodeBuilder::Function" = type { %"class.std::__cxx11::basic_string", i8, i8, i8, i8, i32, i32, %"class.std::__cxx11::basic_string", %"class.std::__cxx11::basic_string", %"class.std::vector.5", %"class.std::__cxx11::basic_string" }

@.str.9 = private unnamed_addr constant [5 x i8] c"%.*s\00", align 1

; Function Attrs: mustprogress nounwind uwtable
define available_externally noundef ptr @_ZNKSt7__cxx1112basic_stringIcSt11char_traitsIcESaIcEE7_M_dataEv(ptr noundef nonnull align 8 dereferenceable(32) %0) #0 align 2 {
  %2 = alloca ptr, align 8
  store ptr %0, ptr %2, align 8, !tbaa !179
  %3 = load ptr, ptr %2, align 8
  %4 = getelementptr inbounds nuw %"class.std::__cxx11::basic_string", ptr %3, i32 0, i32 0
  %5 = getelementptr inbounds nuw %"struct.std::__cxx11::basic_string<char>::_Alloc_hider", ptr %4, i32 0, i32 0
  %6 = load ptr, ptr %5, align 8, !tbaa !564
  ret ptr %6
}

; Function Attrs: mustprogress nounwind uwtable
define available_externally noundef ptr @_ZNKSt7__cxx1112basic_stringIcSt11char_traitsIcESaIcEE4dataEv(ptr noundef nonnull align 8 dereferenceable(32) %0) #0 align 2 {
  %2 = alloca ptr, align 8
  store ptr %0, ptr %2, align 8, !tbaa !179
  %3 = load ptr, ptr %2, align 8
  %4 = call noundef ptr @_ZNKSt7__cxx1112basic_stringIcSt11char_traitsIcESaIcEE7_M_dataEv(ptr noundef nonnull align 8 dereferenceable(32) %3)
  ret ptr %4
}

; Function Attrs: mustprogress nounwind uwtable
define linkonce_odr dso_local noundef nonnull align 4 dereferenceable(4) ptr @_ZNKSt6vectorIiSaIiEEixEm(ptr noundef nonnull align 8 dereferenceable(24) %0, i64 noundef %1) #0 comdat align 2 {
  %3 = alloca ptr, align 8
  %4 = alloca i64, align 8
  store ptr %0, ptr %3, align 8, !tbaa !148
  store i64 %1, ptr %4, align 8, !tbaa !32
  %5 = load ptr, ptr %3, align 8
  %6 = getelementptr inbounds nuw %"struct.std::_Vector_base.6", ptr %5, i32 0, i32 0
  %7 = getelementptr inbounds nuw %"struct.std::_Vector_base<int, std::allocator<int>>::_Vector_impl_data", ptr %6, i32 0, i32 0
  %8 = load ptr, ptr %7, align 8, !tbaa !187
  %9 = load i64, ptr %4, align 8, !tbaa !32
  %10 = getelementptr inbounds nuw i32, ptr %8, i64 %9
  ret ptr %10
}

; Function Attrs: mustprogress nounwind uwtable
define linkonce_odr dso_local noundef i64 @_ZNKSt6vectorIiSaIiEE4sizeEv(ptr noundef nonnull align 8 dereferenceable(24) %0) #0 comdat align 2 {
  %2 = alloca ptr, align 8
  store ptr %0, ptr %2, align 8, !tbaa !148
  %3 = load ptr, ptr %2, align 8
  %4 = getelementptr inbounds nuw %"struct.std::_Vector_base.6", ptr %3, i32 0, i32 0
  %5 = getelementptr inbounds nuw %"struct.std::_Vector_base<int, std::allocator<int>>::_Vector_impl_data", ptr %4, i32 0, i32 1
  %6 = load ptr, ptr %5, align 8, !tbaa !188
  %7 = getelementptr inbounds nuw %"struct.std::_Vector_base.6", ptr %3, i32 0, i32 0
  %8 = getelementptr inbounds nuw %"struct.std::_Vector_base<int, std::allocator<int>>::_Vector_impl_data", ptr %7, i32 0, i32 0
  %9 = load ptr, ptr %8, align 8, !tbaa !187
  %10 = ptrtoint ptr %6 to i64
  %11 = ptrtoint ptr %9 to i64
  %12 = sub i64 %10, %11
  %13 = sdiv exact i64 %12, 4
  ret i64 %13
}

; Function Attrs: mustprogress nounwind uwtable
define linkonce_odr dso_local noundef nonnull align 8 dereferenceable(168) ptr @_ZNKSt6vectorIN4Luau15BytecodeBuilder8FunctionESaIS2_EEixEm(ptr noundef nonnull align 8 dereferenceable(24) %0, i64 noundef %1) #0 comdat align 2 {
  %3 = alloca ptr, align 8
  %4 = alloca i64, align 8
  store ptr %0, ptr %3, align 8, !tbaa !144
  store i64 %1, ptr %4, align 8, !tbaa !32
  %5 = load ptr, ptr %3, align 8
  %6 = getelementptr inbounds nuw %"struct.std::_Vector_base", ptr %5, i32 0, i32 0
  %7 = getelementptr inbounds nuw %"struct.std::_Vector_base<Luau::BytecodeBuilder::Function, std::allocator<Luau::BytecodeBuilder::Function>>::_Vector_impl_data", ptr %6, i32 0, i32 0
  %8 = load ptr, ptr %7, align 8, !tbaa !195
  %9 = load i64, ptr %4, align 8, !tbaa !32
  %10 = getelementptr inbounds nuw %"struct.Luau::BytecodeBuilder::Function", ptr %8, i64 %9
  ret ptr %10
}

; Function Attrs: mustprogress uwtable
define dso_local void @_ZNK4Luau15BytecodeBuilder19annotateInstructionERNSt7__cxx1112basic_stringIcSt11char_traitsIcESaIcEEEjj(ptr noundef nonnull align 8 dereferenceable(840) %0, ptr noundef nonnull align 8 dereferenceable(32) %1, i32 noundef %2, i32 noundef %3) #2 align 2 {
  %5 = alloca ptr, align 8
  %6 = alloca ptr, align 8
  %7 = alloca i32, align 4
  %8 = alloca i32, align 4
  %9 = alloca ptr, align 8
  %10 = alloca ptr, align 8
  %11 = alloca ptr, align 8
  %12 = alloca i32, align 4
  store ptr %0, ptr %5, align 8, !tbaa !35
  store ptr %1, ptr %6, align 8, !tbaa !179
  store i32 %2, ptr %7, align 4, !tbaa !28
  store i32 %3, ptr %8, align 4, !tbaa !28
  %13 = load ptr, ptr %5, align 8
  %14 = getelementptr inbounds nuw %"class.Luau::BytecodeBuilder", ptr %13, i32 0, i32 27
  %15 = load i32, ptr %14, align 8, !tbaa !142
  %16 = and i32 %15, 1
  %17 = icmp eq i32 %16, 0
  br i1 %17, label %18, label %19

18:                                               ; preds = %4
  br label %70

19:                                               ; preds = %4
  call void @llvm.lifetime.start.p0(i64 8, ptr %9) #19
  %20 = getelementptr inbounds nuw %"class.Luau::BytecodeBuilder", ptr %13, i32 0, i32 0
  %21 = load i32, ptr %7, align 4, !tbaa !28
  %22 = zext i32 %21 to i64
  %23 = call noundef nonnull align 8 dereferenceable(168) ptr @_ZNKSt6vectorIN4Luau15BytecodeBuilder8FunctionESaIS2_EEixEm(ptr noundef nonnull align 8 dereferenceable(24) %20, i64 noundef %22) #19
  store ptr %23, ptr %9, align 8, !tbaa !194
  call void @llvm.lifetime.start.p0(i64 8, ptr %10) #19
  %24 = load ptr, ptr %9, align 8, !tbaa !194
  %25 = getelementptr inbounds nuw %"struct.Luau::BytecodeBuilder::Function", ptr %24, i32 0, i32 7
  store ptr %25, ptr %10, align 8, !tbaa !179
  call void @llvm.lifetime.start.p0(i64 8, ptr %11) #19
  %26 = load ptr, ptr %9, align 8, !tbaa !194
  %27 = getelementptr inbounds nuw %"struct.Luau::BytecodeBuilder::Function", ptr %26, i32 0, i32 9
  store ptr %27, ptr %11, align 8, !tbaa !148
  call void @llvm.lifetime.start.p0(i64 4, ptr %12) #19
  %28 = load i32, ptr %8, align 4, !tbaa !28
  %29 = add i32 %28, 1
  store i32 %29, ptr %12, align 4, !tbaa !28
  br label %30

30:                                               ; preds = %45, %19
  %31 = load i32, ptr %12, align 4, !tbaa !28
  %32 = zext i32 %31 to i64
  %33 = load ptr, ptr %11, align 8, !tbaa !148
  %34 = call noundef i64 @_ZNKSt6vectorIiSaIiEE4sizeEv(ptr noundef nonnull align 8 dereferenceable(24) %33) #19
  %35 = icmp ult i64 %32, %34
  br i1 %35, label %36, label %43

36:                                               ; preds = %30
  %37 = load ptr, ptr %11, align 8, !tbaa !148
  %38 = load i32, ptr %12, align 4, !tbaa !28
  %39 = zext i32 %38 to i64
  %40 = call noundef nonnull align 4 dereferenceable(4) ptr @_ZNKSt6vectorIiSaIiEEixEm(ptr noundef nonnull align 8 dereferenceable(24) %37, i64 noundef %39) #19
  %41 = load i32, ptr %40, align 4, !tbaa !28
  %42 = icmp eq i32 %41, -1
  br label %43

43:                                               ; preds = %36, %30
  %44 = phi i1 [ false, %30 ], [ %42, %36 ]
  br i1 %44, label %45, label %48

45:                                               ; preds = %43
  %46 = load i32, ptr %12, align 4, !tbaa !28
  %47 = add i32 %46, 1
  store i32 %47, ptr %12, align 4, !tbaa !28
  br label %30, !llvm.loop !403

48:                                               ; preds = %43
  %49 = load ptr, ptr %6, align 8, !tbaa !179
  %50 = load ptr, ptr %11, align 8, !tbaa !148
  %51 = load i32, ptr %12, align 4, !tbaa !28
  %52 = zext i32 %51 to i64
  %53 = call noundef nonnull align 4 dereferenceable(4) ptr @_ZNKSt6vectorIiSaIiEEixEm(ptr noundef nonnull align 8 dereferenceable(24) %50, i64 noundef %52) #19
  %54 = load i32, ptr %53, align 4, !tbaa !28
  %55 = load ptr, ptr %11, align 8, !tbaa !148
  %56 = load i32, ptr %8, align 4, !tbaa !28
  %57 = zext i32 %56 to i64
  %58 = call noundef nonnull align 4 dereferenceable(4) ptr @_ZNKSt6vectorIiSaIiEEixEm(ptr noundef nonnull align 8 dereferenceable(24) %55, i64 noundef %57) #19
  %59 = load i32, ptr %58, align 4, !tbaa !28
  %60 = sub nsw i32 %54, %59
  %61 = load ptr, ptr %10, align 8, !tbaa !179
  %62 = call noundef ptr @_ZNKSt7__cxx1112basic_stringIcSt11char_traitsIcESaIcEE4dataEv(ptr noundef nonnull align 8 dereferenceable(32) %61) #19
  %63 = load ptr, ptr %11, align 8, !tbaa !148
  %64 = load i32, ptr %8, align 4, !tbaa !28
  %65 = zext i32 %64 to i64
  %66 = call noundef nonnull align 4 dereferenceable(4) ptr @_ZNKSt6vectorIiSaIiEEixEm(ptr noundef nonnull align 8 dereferenceable(24) %63, i64 noundef %65) #19
  %67 = load i32, ptr %66, align 4, !tbaa !28
  %68 = sext i32 %67 to i64
  %69 = getelementptr inbounds i8, ptr %62, i64 %68
  call void (ptr, ptr, ...) @_ZN4Luau12formatAppendERNSt7__cxx1112basic_stringIcSt11char_traitsIcESaIcEEEPKcz(ptr noundef nonnull align 8 dereferenceable(32) %49, ptr noundef @.str.9, i32 noundef %60, ptr noundef %69)
  call void @llvm.lifetime.end.p0(i64 4, ptr %12) #19
  call void @llvm.lifetime.end.p0(i64 8, ptr %11) #19
  call void @llvm.lifetime.end.p0(i64 8, ptr %10) #19
  call void @llvm.lifetime.end.p0(i64 8, ptr %9) #19
  br label %70

70:                                               ; preds = %48, %18
  ret void
}