; Function Attrs: mustprogress uwtable
define dso_local void @_ZNK4Luau15BytecodeBuilder19annotateInstructionERNSt7__cxx1112basic_stringIcSt11char_traitsIcESaIcEEEjj(ptr noundef nonnull readonly align 8 captures(none) dereferenceable(840) %0, ptr noundef nonnull align 8 dereferenceable(32) %1, i32 noundef %2, i32 noundef %3) local_unnamed_addr #3 align 2 {
  %5 = getelementptr inbounds nuw i8, ptr %0, i64 736
  %6 = load i32, ptr %5, align 8, !tbaa !130
  %7 = and i32 %6, 1
  %8 = icmp eq i32 %7, 0
  br i1 %8, label %35, label %9

9:                                                ; preds = %4
  %10 = zext i32 %2 to i64
  %11 = load ptr, ptr %0, align 8, !tbaa !140
  %12 = getelementptr inbounds nuw %"struct.Luau::BytecodeBuilder::Function", ptr %11, i64 %10
  %13 = getelementptr inbounds nuw i8, ptr %12, i64 48
  %14 = getelementptr inbounds nuw i8, ptr %12, i64 112
  %15 = getelementptr inbounds nuw i8, ptr %12, i64 120
  %16 = load ptr, ptr %15, align 8, !tbaa !135
  %17 = load ptr, ptr %14, align 8, !tbaa !134
  %18 = ptrtoint ptr %16 to i64
  %19 = ptrtoint ptr %17 to i64
  %20 = sub i64 %18, %19
  %21 = ashr exact i64 %20, 2
  br label %22

22:                                               ; preds = %22, %9
  %.0.in = phi i32 [ %3, %9 ], [ %.0, %22 ]
  %.0 = add i32 %.0.in, 1
  %23 = zext i32 %.0 to i64
  %24 = icmp ugt i64 %21, %23
  %25 = getelementptr inbounds nuw i32, ptr %17, i64 %23
  %26 = load i32, ptr %25, align 4, !tbaa !19
  %27 = icmp eq i32 %26, -1
  %or.cond = select i1 %24, i1 %27, i1 false
  br i1 %or.cond, label %22, label %.critedge, !llvm.loop !332

.critedge:                                        ; preds = %22
  %28 = zext i32 %3 to i64
  %29 = getelementptr inbounds nuw i32, ptr %17, i64 %28
  %30 = load i32, ptr %29, align 4, !tbaa !19
  %31 = sub nsw i32 %26, %30
  %32 = load ptr, ptr %13, align 8, !tbaa !143
  %33 = sext i32 %30 to i64
  %34 = getelementptr inbounds i8, ptr %32, i64 %33
  tail call void (ptr, ptr, ...) @_ZN4Luau12formatAppendERNSt7__cxx1112basic_stringIcSt11char_traitsIcESaIcEEEPKcz(ptr noundef nonnull align 8 dereferenceable(32) %1, ptr noundef nonnull @.str.9, i32 noundef %31, ptr noundef %34)
  br label %35

35:                                               ; preds = %4, %.critedge
  ret void
}